; Function Attrs: nounwind uwtable
define void @ossl_quic_rcidm_request_roll(ptr noundef captures(none) %0) local_unnamed_addr #0 {
  %2 = getelementptr inbounds nuw i8, ptr %0, i64 136
  %3 = load i8, ptr %2, align 8
  %4 = or i8 %3, 64
  store i8 %4, ptr %2, align 8
  %5 = and i8 %3, 4
  %.not.i.i = icmp eq i8 %5, 0
  br i1 %.not.i.i, label %rcidm_tick.exit, label %rcidm_should_roll.exit.thread.i

rcidm_should_roll.exit.thread.i:                  ; preds = %1
  %6 = getelementptr inbounds nuw i8, ptr %0, i64 88
  %7 = load ptr, ptr %6, align 8, !tbaa !3
  %8 = tail call ptr @ossl_pqueue_peek(ptr noundef %7) #9
  %9 = icmp eq ptr %8, null
  br i1 %9, label %rcidm_tick.exit, label %10

10:                                               ; preds = %rcidm_should_roll.exit.thread.i
  %11 = getelementptr inbounds nuw i8, ptr %0, i64 72
  tail call fastcc void @rcidm_transition_rcid(ptr noundef nonnull %0, ptr noundef %8, i32 noundef 1)
  %12 = load i64, ptr %11, align 8, !tbaa !26
  %13 = add i64 %12, 1
  store i64 %13, ptr %11, align 8, !tbaa !26
  %14 = load i8, ptr %2, align 8
  %15 = and i8 %14, -65
  store i8 %15, ptr %2, align 8
  %16 = getelementptr inbounds nuw i8, ptr %0, i64 64
  %17 = load i64, ptr %16, align 8, !tbaa !27
  %18 = icmp ugt i64 %17, 9999
  %19 = urem i64 %17, 10000
  %storemerge.i.i = select i1 %18, i64 %19, i64 0
  store i64 %storemerge.i.i, ptr %16, align 8, !tbaa !27
  br label %rcidm_tick.exit

rcidm_tick.exit:                                  ; preds = %1, %rcidm_should_roll.exit.thread.i, %10
  tail call fastcc void @rcidm_update(ptr noundef nonnull %0)
  ret void
}